(lp0
S'Wed Jul 03 11:28:08 2013'
p1
a(iPulseSequence
PulseSequence
p2
(dp3
S'_LONG_DELAY'
p4
I7
sS'_CHANNELS'
p5
I21
sS'_STOP'
p6
I1
sS'channels'
p7
(lp8
(iPulseChannel
PulseChannel
p9
(dp10
S'delay_on'
p11
F0.0
sS'num_of_pulse_trains'
p12
I1
sS'latest_channel_event'
p13
cnumpy.core.multiarray
scalar
p14
(cnumpy
dtype
p15
(S'f8'
p16
I0
I1
tp17
Rp18
(I3
S'<'
p19
NNNI-1
I-1
I0
tp20
bS'\xfa~j\xbct\x93H?'
p21
tp22
Rp23
sS'delay_off'
p24
F0.0
sS'pulse_trains'
p25
(lp26
(iPulseTrain
PulseTrain
p27
(dp28
S'pulse_widths'
p29
(lp30
F5e-05
aF5e-05
aF5e-05
aF5e-05
asS'pulses_in_train'
p31
I4
sS'width'
p32
F5e-05
sS'separation'
p33
F0.0001
sS'latest_pulse_train_event'
p34
g23
sS'pulse_on_times'
p35
(lp36
F0.00025
aF0.0004
aF0.00055
aF0.0007
asS'first_pulse_train_event'
p37
g14
(g18
S'\xfc\xa9\xf1\xd2Mb0?'
p38
tp39
Rp40
sS'time_on'
p41
F0.00025
sbasS'first_channel_event'
p42
g40
sS'pulse_channel_index'
p43
I0
sS'num_pulses'
p44
I16
sba(iPulseChannel
PulseChannel
p45
(dp46
g11
F0.0
sg12
I1
sg13
g14
(g18
S'\xfa~j\xbct\x93H?'
p47
tp48
Rp49
sg24
F0.0
sg25
(lp50
(iPulseTrain
PulseTrain
p51
(dp52
g29
(lp53
F5e-05
aF5e-05
aF5e-05
aF5e-05
asg31
I4
sg32
F5e-05
sg33
F0.0001
sg34
g49
sg35
(lp54
F0.00025
aF0.0004
aF0.00055
aF0.0007
asg37
g14
(g18
S'\xfc\xa9\xf1\xd2Mb0?'
p55
tp56
Rp57
sg41
F0.00025
sbasg42
g57
sg43
I1
sg44
I4
sba(iPulseChannel
PulseChannel
p58
(dp59
g11
F0.0
sg12
I1
sg13
g14
(g18
S'\xfa~j\xbct\x93H?'
p60
tp61
Rp62
sg24
F0.0
sg25
(lp63
(iPulseTrain
PulseTrain
p64
(dp65
g29
(lp66
F5e-05
aF5e-05
aF5e-05
aF5e-05
asg31
I4
sg32
F5e-05
sg33
F0.0001
sg34
g62
sg35
(lp67
F0.00025
aF0.0004
aF0.00055
aF0.0007
asg37
g14
(g18
S'\xfc\xa9\xf1\xd2Mb0?'
p68
tp69
Rp70
sg41
F0.00025
sbasg42
g70
sg43
I2
sg44
I4
sba(iPulseChannel
PulseChannel
p71
(dp72
g11
F0.0
sg12
I1
sg13
g14
(g18
S'\xfa~j\xbct\x93H?'
p73
tp74
Rp75
sg24
F0.0
sg25
(lp76
(iPulseTrain
PulseTrain
p77
(dp78
g29
(lp79
F5e-05
aF5e-05
aF5e-05
aF5e-05
asg31
I4
sg32
F5e-05
sg33
F0.0001
sg34
g75
sg35
(lp80
F0.00025
aF0.0004
aF0.00055
aF0.0007
asg37
g14
(g18
S'\xfc\xa9\xf1\xd2Mb0?'
p81
tp82
Rp83
sg41
F0.00025
sbasg42
g83
sg43
I3
sg44
I4
sba(iPulseChannel
PulseChannel
p84
(dp85
g11
F0.0
sg12
I0
sg13
I0
sg24
F0.0
sg25
(lp86
sg42
I0
sg43
I4
sg44
I0
sba(iPulseChannel
PulseChannel
p87
(dp88
g11
F0.0
sg12
I0
sg13
I0
sg24
F0.0
sg25
(lp89
sg42
I0
sg43
I5
sg44
I0
sba(iPulseChannel
PulseChannel
p90
(dp91
g11
F0.0
sg12
I0
sg13
I0
sg24
F0.0
sg25
(lp92
sg42
I0
sg43
I6
sg44
I0
sba(iPulseChannel
PulseChannel
p93
(dp94
g11
F0.0
sg12
I0
sg13
I0
sg24
F0.0
sg25
(lp95
sg42
I0
sg43
I7
sg44
I0
sba(iPulseChannel
PulseChannel
p96
(dp97
g11
F0.0
sg12
I0
sg13
I0
sg24
F0.0
sg25
(lp98
sg42
I0
sg43
I8
sg44
I0
sba(iPulseChannel
PulseChannel
p99
(dp100
g11
F0.0
sg12
I0
sg13
I0
sg24
F0.0
sg25
(lp101
sg42
I0
sg43
I9
sg44
I0
sba(iPulseChannel
PulseChannel
p102
(dp103
g11
F0.0
sg12
I0
sg13
I0
sg24
F0.0
sg25
(lp104
sg42
I0
sg43
I10
sg44
I0
sba(iPulseChannel
PulseChannel
p105
(dp106
g11
F0.0
sg12
I0
sg13
I0
sg24
F0.0
sg25
(lp107
sg42
I0
sg43
I11
sg44
I0
sba(iPulseChannel
PulseChannel
p108
(dp109
g11
F0.0
sg12
I0
sg13
I0
sg24
F0.0
sg25
(lp110
sg42
I0
sg43
I12
sg44
I0
sba(iPulseChannel
PulseChannel
p111
(dp112
g11
F0.0
sg12
I0
sg13
I0
sg24
F0.0
sg25
(lp113
sg42
I0
sg43
I13
sg44
I0
sba(iPulseChannel
PulseChannel
p114
(dp115
g11
F0.0
sg12
I0
sg13
I0
sg24
F0.0
sg25
(lp116
sg42
I0
sg43
I14
sg44
I0
sba(iPulseChannel
PulseChannel
p117
(dp118
g11
F0.0
sg12
I0
sg13
I0
sg24
F0.0
sg25
(lp119
sg42
I0
sg43
I15
sg44
I0
sba(iPulseChannel
PulseChannel
p120
(dp121
g11
F0.0
sg12
I0
sg13
I0
sg24
F0.0
sg25
(lp122
sg42
I0
sg43
I16
sg44
I0
sba(iPulseChannel
PulseChannel
p123
(dp124
g11
F0.0
sg12
I0
sg13
I0
sg24
F0.0
sg25
(lp125
sg42
I0
sg43
I17
sg44
I0
sba(iPulseChannel
PulseChannel
p126
(dp127
g11
F0.0
sg12
I0
sg13
I0
sg24
F0.0
sg25
(lp128
sg42
I0
sg43
I18
sg44
I0
sba(iPulseChannel
PulseChannel
p129
(dp130
g11
F0.0
sg12
I0
sg13
I0
sg24
F0.0
sg25
(lp131
sg42
I0
sg43
I19
sg44
I0
sba(iPulseChannel
PulseChannel
p132
(dp133
g11
F0.0
sg12
I0
sg13
I0
sg24
F0.0
sg25
(lp134
sg42
I0
sg43
I20
sg44
I0
sbasS'first_sequence_event'
p135
g40
sS'latest_sequence_event'
p136
g23
sS'_BRANCH'
p137
I6
sS'_FIVE_PERIOD'
p138
I10485760
sS'num_of_wait_events'
p139
I0
sS'_TWO_PERIOD'
p140
I4194304
sS'_ONE_PERIOD'
p141
I2097152
sS'wait_events'
p142
(lp143
sS'num_of_channels'
p144
I21
sS'pulse_channel_indices'
p145
(lp146
I0
aI1
aI2
aI3
aI4
aI5
aI6
aI7
aI8
aI9
aI10
aI11
aI12
aI13
aI14
aI15
aI16
aI17
aI18
aI19
aI20
asS'_SIX_PERIOD'
p147
I12582912
sS'_THREE_PERIOD'
p148
I6291456
sS'_CONTINUE'
p149
I0
sS'_PULSE_PROGRAM'
p150
I0
sS'_LOOP'
p151
I2
sS'_END_LOOP'
p152
I3
sS'_WAIT'
p153
I8
sS'_ALL_FLAGS_ON'
p154
I2097151
sS'_FOUR_PERIOD'
p155
I8388608
sS'_ON'
p156
I14680064
sba.