(lp0
S'Wed Jun 05 12:52:36 2013'
p1
a(iPulseSequence
PulseSequence
p2
(dp3
S'_LONG_DELAY'
p4
I7
sS'_CHANNELS'
p5
I21
sS'_STOP'
p6
I1
sS'channels'
p7
(lp8
(iPulseChannel
PulseChannel
p9
(dp10
S'delay_on'
p11
F0.0
sS'num_of_pulse_trains'
p12
I1
sS'latest_channel_event'
p13
cnumpy.core.multiarray
scalar
p14
(cnumpy
dtype
p15
(S'f8'
p16
I0
I1
tp17
Rp18
(I3
S'<'
p19
NNNI-1
I-1
I0
tp20
bS'w\x83\r\xf4\xf5!t>'
p21
tp22
Rp23
sS'delay_off'
p24
F0.0
sS'pulse_trains'
p25
(lp26
(iPulseTrain
PulseTrain
p27
(dp28
S'pulse_widths'
p29
(lp30
F5e-09
aF5e-09
aF5e-09
aF5e-09
asS'pulses_in_train'
p31
I4
sS'width'
p32
F5e-09
sS'separation'
p33
F1e-08
sS'latest_pulse_train_event'
p34
g23
sS'pulse_on_times'
p35
(lp36
F2.5e-08
aF4e-08
aF5.5e-08
aF7e-08
asS'first_pulse_train_event'
p37
g14
(g18
S'H\xaf\xbc\x9a\xf2\xd7Z>'
p38
tp39
Rp40
sS'time_on'
p41
F2.5000000000000002e-08
sbasS'first_channel_event'
p42
g40
sS'pulse_channel_index'
p43
I0
sS'num_pulses'
p44
I16
sba(iPulseChannel
PulseChannel
p45
(dp46
g11
F0.0
sg12
I1
sg13
g14
(g18
S'w\x83\r\xf4\xf5!t>'
p47
tp48
Rp49
sg24
F0.0
sg25
(lp50
(iPulseTrain
PulseTrain
p51
(dp52
g29
(lp53
F5e-09
aF5e-09
aF5e-09
aF5e-09
asg31
I4
sg32
F5e-09
sg33
F1e-08
sg34
g49
sg35
(lp54
F2.5e-08
aF4e-08
aF5.5e-08
aF7e-08
asg37
g14
(g18
S'H\xaf\xbc\x9a\xf2\xd7Z>'
p55
tp56
Rp57
sg41
F2.5000000000000002e-08
sbasg42
g57
sg43
I1
sg44
I4
sba(iPulseChannel
PulseChannel
p58
(dp59
g11
F0.0
sg12
I0
sg13
I0
sg24
F0.0
sg25
(lp60
sg42
I0
sg43
I2
sg44
I0
sba(iPulseChannel
PulseChannel
p61
(dp62
g11
F0.0
sg12
I0
sg13
I0
sg24
F0.0
sg25
(lp63
sg42
I0
sg43
I3
sg44
I0
sba(iPulseChannel
PulseChannel
p64
(dp65
g11
F0.0
sg12
I0
sg13
I0
sg24
F0.0
sg25
(lp66
sg42
I0
sg43
I4
sg44
I0
sba(iPulseChannel
PulseChannel
p67
(dp68
g11
F0.0
sg12
I0
sg13
I0
sg24
F0.0
sg25
(lp69
sg42
I0
sg43
I5
sg44
I0
sba(iPulseChannel
PulseChannel
p70
(dp71
g11
F0.0
sg12
I0
sg13
I0
sg24
F0.0
sg25
(lp72
sg42
I0
sg43
I6
sg44
I0
sba(iPulseChannel
PulseChannel
p73
(dp74
g11
F0.0
sg12
I0
sg13
I0
sg24
F0.0
sg25
(lp75
sg42
I0
sg43
I7
sg44
I0
sba(iPulseChannel
PulseChannel
p76
(dp77
g11
F0.0
sg12
I0
sg13
I0
sg24
F0.0
sg25
(lp78
sg42
I0
sg43
I8
sg44
I0
sba(iPulseChannel
PulseChannel
p79
(dp80
g11
F0.0
sg12
I0
sg13
I0
sg24
F0.0
sg25
(lp81
sg42
I0
sg43
I9
sg44
I0
sba(iPulseChannel
PulseChannel
p82
(dp83
g11
F0.0
sg12
I0
sg13
I0
sg24
F0.0
sg25
(lp84
sg42
I0
sg43
I10
sg44
I0
sba(iPulseChannel
PulseChannel
p85
(dp86
g11
F0.0
sg12
I0
sg13
I0
sg24
F0.0
sg25
(lp87
sg42
I0
sg43
I11
sg44
I0
sba(iPulseChannel
PulseChannel
p88
(dp89
g11
F0.0
sg12
I0
sg13
I0
sg24
F0.0
sg25
(lp90
sg42
I0
sg43
I12
sg44
I0
sba(iPulseChannel
PulseChannel
p91
(dp92
g11
F0.0
sg12
I0
sg13
I0
sg24
F0.0
sg25
(lp93
sg42
I0
sg43
I13
sg44
I0
sba(iPulseChannel
PulseChannel
p94
(dp95
g11
F0.0
sg12
I0
sg13
I0
sg24
F0.0
sg25
(lp96
sg42
I0
sg43
I14
sg44
I0
sba(iPulseChannel
PulseChannel
p97
(dp98
g11
F0.0
sg12
I0
sg13
I0
sg24
F0.0
sg25
(lp99
sg42
I0
sg43
I15
sg44
I0
sba(iPulseChannel
PulseChannel
p100
(dp101
g11
F0.0
sg12
I0
sg13
I0
sg24
F0.0
sg25
(lp102
sg42
I0
sg43
I16
sg44
I0
sba(iPulseChannel
PulseChannel
p103
(dp104
g11
F0.0
sg12
I0
sg13
I0
sg24
F0.0
sg25
(lp105
sg42
I0
sg43
I17
sg44
I0
sba(iPulseChannel
PulseChannel
p106
(dp107
g11
F0.0
sg12
I0
sg13
I0
sg24
F0.0
sg25
(lp108
sg42
I0
sg43
I18
sg44
I0
sba(iPulseChannel
PulseChannel
p109
(dp110
g11
F0.0
sg12
I0
sg13
I0
sg24
F0.0
sg25
(lp111
sg42
I0
sg43
I19
sg44
I0
sba(iPulseChannel
PulseChannel
p112
(dp113
g11
F0.0
sg12
I0
sg13
I0
sg24
F0.0
sg25
(lp114
sg42
I0
sg43
I20
sg44
I0
sbasS'first_sequence_event'
p115
g40
sS'latest_sequence_event'
p116
g23
sS'_BRANCH'
p117
I6
sS'_FIVE_PERIOD'
p118
I10485760
sS'num_of_wait_events'
p119
I0
sS'_TWO_PERIOD'
p120
I4194304
sS'_ONE_PERIOD'
p121
I2097152
sS'wait_events'
p122
(lp123
sS'num_of_channels'
p124
I21
sS'pulse_channel_indices'
p125
(lp126
I0
aI1
aI2
aI3
aI4
aI5
aI6
aI7
aI8
aI9
aI10
aI11
aI12
aI13
aI14
aI15
aI16
aI17
aI18
aI19
aI20
asS'_SIX_PERIOD'
p127
I12582912
sS'_THREE_PERIOD'
p128
I6291456
sS'_CONTINUE'
p129
I0
sS'_PULSE_PROGRAM'
p130
I0
sS'_LOOP'
p131
I2
sS'_END_LOOP'
p132
I3
sS'_WAIT'
p133
I8
sS'_ALL_FLAGS_ON'
p134
I2097151
sS'_FOUR_PERIOD'
p135
I8388608
sS'_ON'
p136
I14680064
sba.