(iPulseSequence
PulseSequence
p0
(dp1
S'_LONG_DELAY'
p2
I7
sS'_CHANNELS'
p3
I21
sS'_STOP'
p4
I1
sS'channels'
p5
(lp6
(iPulseChannel
PulseChannel
p7
(dp8
S'delay_on'
p9
F0.0
sS'num_of_pulse_trains'
p10
I1
sS'latest_channel_event'
p11
cnumpy.core.multiarray
scalar
p12
(cnumpy
dtype
p13
(S'f8'
p14
I0
I1
tp15
Rp16
(I3
S'<'
p17
NNNI-1
I-1
I0
tp18
bS'\xfb~j\xbct\x93H?'
p19
tp20
Rp21
sS'delay_off'
p22
F0.0
sS'pulse_trains'
p23
(lp24
(iPulseTrain
PulseTrain
p25
(dp26
S'pulse_widths'
p27
(lp28
F5e-05
aF5e-05
aF5e-05
aF5e-05
asS'pulses_in_train'
p29
I4
sS'width'
p30
F5e-05
sS'separation'
p31
F0.0001
sS'latest_pulse_train_event'
p32
g21
sS'pulse_on_times'
p33
(lp34
F0.00025
aF0.0004
aF0.00055
aF0.0007000000000000001
asS'first_pulse_train_event'
p35
g12
(g16
S'\xfc\xa9\xf1\xd2Mb0?'
p36
tp37
Rp38
sS'time_on'
p39
F0.00025
sbasS'first_channel_event'
p40
g38
sS'pulse_channel_index'
p41
I0
sS'num_pulses'
p42
I15
sba(iPulseChannel
PulseChannel
p43
(dp44
g9
F0.0
sg10
I1
sg11
g12
(g16
S'\xfb~j\xbct\x93H?'
p45
tp46
Rp47
sg22
F0.0
sg23
(lp48
(iPulseTrain
PulseTrain
p49
(dp50
g27
(lp51
F5e-05
aF5e-05
aF5e-05
aF5e-05
asg29
I4
sg30
F5e-05
sg31
F0.0001
sg32
g47
sg33
(lp52
F0.00025
aF0.0004
aF0.00055
aF0.0007000000000000001
asg35
g12
(g16
S'\xfc\xa9\xf1\xd2Mb0?'
p53
tp54
Rp55
sg39
F0.00025
sbasg40
g55
sg41
I1
sg42
I8
sba(iPulseChannel
PulseChannel
p56
(dp57
g9
F0.0
sg10
I0
sg11
I0
sg22
F0.0
sg23
(lp58
sg40
I0
sg41
I2
sg42
I4
sba(iPulseChannel
PulseChannel
p59
(dp60
g9
F0.0
sg10
I0
sg11
I0
sg22
F0.0
sg23
(lp61
sg40
I0
sg41
I3
sg42
I0
sba(iPulseChannel
PulseChannel
p62
(dp63
g9
F0.0
sg10
I0
sg11
I0
sg22
F0.0
sg23
(lp64
sg40
I0
sg41
I4
sg42
I0
sba(iPulseChannel
PulseChannel
p65
(dp66
g9
F0.0
sg10
I0
sg11
I0
sg22
F0.0
sg23
(lp67
sg40
I0
sg41
I5
sg42
I0
sba(iPulseChannel
PulseChannel
p68
(dp69
g9
F0.0
sg10
I0
sg11
I0
sg22
F0.0
sg23
(lp70
sg40
I0
sg41
I6
sg42
I0
sba(iPulseChannel
PulseChannel
p71
(dp72
g9
F0.0
sg10
I0
sg11
I0
sg22
F0.0
sg23
(lp73
sg40
I0
sg41
I7
sg42
I0
sba(iPulseChannel
PulseChannel
p74
(dp75
g9
F0.0
sg10
I0
sg11
I0
sg22
F0.0
sg23
(lp76
sg40
I0
sg41
I8
sg42
I0
sba(iPulseChannel
PulseChannel
p77
(dp78
g9
F0.0
sg10
I0
sg11
I0
sg22
F0.0
sg23
(lp79
sg40
I0
sg41
I9
sg42
I0
sba(iPulseChannel
PulseChannel
p80
(dp81
g9
F0.0
sg10
I0
sg11
I0
sg22
F0.0
sg23
(lp82
sg40
I0
sg41
I10
sg42
I0
sba(iPulseChannel
PulseChannel
p83
(dp84
g9
F0.0
sg10
I0
sg11
I0
sg22
F0.0
sg23
(lp85
sg40
I0
sg41
I11
sg42
I0
sba(iPulseChannel
PulseChannel
p86
(dp87
g9
F0.0
sg10
I0
sg11
I0
sg22
F0.0
sg23
(lp88
sg40
I0
sg41
I12
sg42
I0
sba(iPulseChannel
PulseChannel
p89
(dp90
g9
F0.0
sg10
I0
sg11
I0
sg22
F0.0
sg23
(lp91
sg40
I0
sg41
I13
sg42
I0
sba(iPulseChannel
PulseChannel
p92
(dp93
g9
F0.0
sg10
I0
sg11
I0
sg22
F0.0
sg23
(lp94
sg40
I0
sg41
I14
sg42
I0
sba(iPulseChannel
PulseChannel
p95
(dp96
g9
F0.0
sg10
I0
sg11
I0
sg22
F0.0
sg23
(lp97
sg40
I0
sg41
I15
sg42
I0
sba(iPulseChannel
PulseChannel
p98
(dp99
g9
F0.0
sg10
I0
sg11
I0
sg22
F0.0
sg23
(lp100
sg40
I0
sg41
I16
sg42
I0
sba(iPulseChannel
PulseChannel
p101
(dp102
g9
F0.0
sg10
I0
sg11
I0
sg22
F0.0
sg23
(lp103
sg40
I0
sg41
I17
sg42
I0
sba(iPulseChannel
PulseChannel
p104
(dp105
g9
F0.0
sg10
I0
sg11
I0
sg22
F0.0
sg23
(lp106
sg40
I0
sg41
I18
sg42
I0
sba(iPulseChannel
PulseChannel
p107
(dp108
g9
F0.0
sg10
I0
sg11
I0
sg22
F0.0
sg23
(lp109
sg40
I0
sg41
I19
sg42
I0
sba(iPulseChannel
PulseChannel
p110
(dp111
g9
F0.0
sg10
I0
sg11
I0
sg22
F0.0
sg23
(lp112
sg40
I0
sg41
I20
sg42
I0
sbasS'first_sequence_event'
p113
g38
sS'latest_sequence_event'
p114
g21
sS'_BRANCH'
p115
I6
sS'_FIVE_PERIOD'
p116
I10485760
sS'num_of_wait_events'
p117
I0
sS'_TWO_PERIOD'
p118
I4194304
sS'_ONE_PERIOD'
p119
I2097152
sS'wait_events'
p120
(lp121
sS'num_of_channels'
p122
I21
sS'pulse_channel_indices'
p123
(lp124
I0
aI1
aI2
aI3
aI4
aI5
aI6
aI7
aI8
aI9
aI10
aI11
aI12
aI13
aI14
aI15
aI16
aI17
aI18
aI19
aI20
asS'_SIX_PERIOD'
p125
I12582912
sS'_THREE_PERIOD'
p126
I6291456
sS'_CONTINUE'
p127
I0
sS'_PULSE_PROGRAM'
p128
I0
sS'_LOOP'
p129
I2
sS'_END_LOOP'
p130
I3
sS'_WAIT'
p131
I8
sS'_ALL_FLAGS_ON'
p132
I2097151
sS'_FOUR_PERIOD'
p133
I8388608
sS'_ON'
p134
I14680064
sb.