(iPulseSequence
PulseSequence
p0
(dp1
S'_LONG_DELAY'
p2
I7
sS'_CHANNELS'
p3
I21
sS'_STOP'
p4
I1
sS'channels'
p5
(lp6
(iPulseChannel
PulseChannel
p7
(dp8
S'delay_on'
p9
F0.0
sS'num_of_pulse_trains'
p10
I1
sS'latest_channel_event'
p11
cnumpy.core.multiarray
scalar
p12
(cnumpy
dtype
p13
(S'f8'
p14
I0
I1
tp15
Rp16
(I3
S'<'
p17
NNNI-1
I-1
I0
tp18
bS'w\x83\r\xf4\xf5!t>'
p19
tp20
Rp21
sS'delay_off'
p22
F0.0
sS'pulse_trains'
p23
(lp24
(iPulseTrain
PulseTrain
p25
(dp26
S'pulse_widths'
p27
(lp28
F5e-09
aF5e-09
aF5e-09
aF5e-09
asS'pulses_in_train'
p29
I4
sS'width'
p30
F5e-09
sS'separation'
p31
F1e-08
sS'latest_pulse_train_event'
p32
g21
sS'pulse_on_times'
p33
(lp34
F2.5e-08
aF4e-08
aF5.5e-08
aF7e-08
asS'first_pulse_train_event'
p35
g12
(g16
S'H\xaf\xbc\x9a\xf2\xd7Z>'
p36
tp37
Rp38
sS'time_on'
p39
F2.5e-08
sbasS'first_channel_event'
p40
g38
sS'pulse_channel_index'
p41
I0
sS'num_pulses'
p42
I15
sba(iPulseChannel
PulseChannel
p43
(dp44
g9
F0.0
sg10
I1
sg11
g12
(g16
S'w\x83\r\xf4\xf5!t>'
p45
tp46
Rp47
sg22
F0.0
sg23
(lp48
(iPulseTrain
PulseTrain
p49
(dp50
g27
(lp51
F5e-09
aF5e-09
aF5e-09
aF5e-09
asg29
I4
sg30
F5e-09
sg31
F1e-08
sg32
g47
sg33
(lp52
F2.5e-08
aF4e-08
aF5.5e-08
aF7e-08
asg35
g12
(g16
S'H\xaf\xbc\x9a\xf2\xd7Z>'
p53
tp54
Rp55
sg39
F2.5e-08
sbasg40
g55
sg41
I1
sg42
I8
sba(iPulseChannel
PulseChannel
p56
(dp57
g9
F0.0
sg10
I1
sg11
g12
(g16
S'w\x83\r\xf4\xf5!t>'
p58
tp59
Rp60
sg22
F0.0
sg23
(lp61
(iPulseTrain
PulseTrain
p62
(dp63
g27
(lp64
F5e-09
aF5e-09
aF5e-09
aF5e-09
asg29
I4
sg30
F5e-09
sg31
F1e-08
sg32
g60
sg33
(lp65
F2.5e-08
aF4e-08
aF5.5e-08
aF7e-08
asg35
g12
(g16
S'H\xaf\xbc\x9a\xf2\xd7Z>'
p66
tp67
Rp68
sg39
F2.5e-08
sbasg40
g68
sg41
I2
sg42
I8
sba(iPulseChannel
PulseChannel
p69
(dp70
g9
F0.0
sg10
I0
sg11
I0
sg22
F0.0
sg23
(lp71
sg40
I0
sg41
I3
sg42
I0
sba(iPulseChannel
PulseChannel
p72
(dp73
g9
F0.0
sg10
I0
sg11
I0
sg22
F0.0
sg23
(lp74
sg40
I0
sg41
I4
sg42
I0
sba(iPulseChannel
PulseChannel
p75
(dp76
g9
F0.0
sg10
I0
sg11
I0
sg22
F0.0
sg23
(lp77
sg40
I0
sg41
I5
sg42
I0
sba(iPulseChannel
PulseChannel
p78
(dp79
g9
F0.0
sg10
I0
sg11
I0
sg22
F0.0
sg23
(lp80
sg40
I0
sg41
I6
sg42
I0
sba(iPulseChannel
PulseChannel
p81
(dp82
g9
F0.0
sg10
I0
sg11
I0
sg22
F0.0
sg23
(lp83
sg40
I0
sg41
I7
sg42
I0
sba(iPulseChannel
PulseChannel
p84
(dp85
g9
F0.0
sg10
I0
sg11
I0
sg22
F0.0
sg23
(lp86
sg40
I0
sg41
I8
sg42
I0
sba(iPulseChannel
PulseChannel
p87
(dp88
g9
F0.0
sg10
I0
sg11
I0
sg22
F0.0
sg23
(lp89
sg40
I0
sg41
I9
sg42
I0
sba(iPulseChannel
PulseChannel
p90
(dp91
g9
F0.0
sg10
I0
sg11
I0
sg22
F0.0
sg23
(lp92
sg40
I0
sg41
I10
sg42
I0
sba(iPulseChannel
PulseChannel
p93
(dp94
g9
F0.0
sg10
I0
sg11
I0
sg22
F0.0
sg23
(lp95
sg40
I0
sg41
I11
sg42
I0
sba(iPulseChannel
PulseChannel
p96
(dp97
g9
F0.0
sg10
I0
sg11
I0
sg22
F0.0
sg23
(lp98
sg40
I0
sg41
I12
sg42
I0
sba(iPulseChannel
PulseChannel
p99
(dp100
g9
F0.0
sg10
I0
sg11
I0
sg22
F0.0
sg23
(lp101
sg40
I0
sg41
I13
sg42
I0
sba(iPulseChannel
PulseChannel
p102
(dp103
g9
F0.0
sg10
I0
sg11
I0
sg22
F0.0
sg23
(lp104
sg40
I0
sg41
I14
sg42
I0
sba(iPulseChannel
PulseChannel
p105
(dp106
g9
F0.0
sg10
I0
sg11
I0
sg22
F0.0
sg23
(lp107
sg40
I0
sg41
I15
sg42
I0
sba(iPulseChannel
PulseChannel
p108
(dp109
g9
F0.0
sg10
I0
sg11
I0
sg22
F0.0
sg23
(lp110
sg40
I0
sg41
I16
sg42
I0
sba(iPulseChannel
PulseChannel
p111
(dp112
g9
F0.0
sg10
I0
sg11
I0
sg22
F0.0
sg23
(lp113
sg40
I0
sg41
I17
sg42
I0
sba(iPulseChannel
PulseChannel
p114
(dp115
g9
F0.0
sg10
I0
sg11
I0
sg22
F0.0
sg23
(lp116
sg40
I0
sg41
I18
sg42
I0
sba(iPulseChannel
PulseChannel
p117
(dp118
g9
F0.0
sg10
I0
sg11
I0
sg22
F0.0
sg23
(lp119
sg40
I0
sg41
I19
sg42
I0
sba(iPulseChannel
PulseChannel
p120
(dp121
g9
F0.0
sg10
I0
sg11
I0
sg22
F0.0
sg23
(lp122
sg40
I0
sg41
I20
sg42
I0
sbasS'first_sequence_event'
p123
g38
sS'latest_sequence_event'
p124
g21
sS'_BRANCH'
p125
I6
sS'_FIVE_PERIOD'
p126
I10485760
sS'num_of_wait_events'
p127
I0
sS'_TWO_PERIOD'
p128
I4194304
sS'_ONE_PERIOD'
p129
I2097152
sS'wait_events'
p130
(lp131
sS'num_of_channels'
p132
I21
sS'pulse_channel_indices'
p133
(lp134
I0
aI1
aI2
aI3
aI4
aI5
aI6
aI7
aI8
aI9
aI10
aI11
aI12
aI13
aI14
aI15
aI16
aI17
aI18
aI19
aI20
asS'_SIX_PERIOD'
p135
I12582912
sS'_THREE_PERIOD'
p136
I6291456
sS'_CONTINUE'
p137
I0
sS'_PULSE_PROGRAM'
p138
I0
sS'_LOOP'
p139
I2
sS'_END_LOOP'
p140
I3
sS'_WAIT'
p141
I8
sS'_ALL_FLAGS_ON'
p142
I2097151
sS'_FOUR_PERIOD'
p143
I8388608
sS'_ON'
p144
I14680064
sb.